target datalayout = "e-m:e-p270:32:32-p271:32:32-p272:64:64-i64:64-i128:128-f80:128-n8:16:32:64-S128"
target triple = "x86_64-pc-linux-gnu"

@.str.147 = private unnamed_addr constant [5 x i8] c"true\00", align 1
@.str.148 = private unnamed_addr constant [6 x i8] c"false\00", align 1
@.str.298 = private unnamed_addr constant [41 x i8] c"pdf_readbool: invalid value for %s bool\0A\00", align 1

; Function Attrs: nounwind uwtable
define internal i32 @pdf_readbool(ptr noundef %0, i32 noundef %1, ptr noundef %2, i32 noundef %3) #0 {
  %5 = alloca i32, align 4
  %6 = alloca ptr, align 8
  %7 = alloca i32, align 4
  %8 = alloca ptr, align 8
  %9 = alloca i32, align 4
  %10 = alloca ptr, align 8
  store ptr %0, ptr %6, align 8
  store i32 %1, ptr %7, align 4
  store ptr %2, ptr %8, align 8
  store i32 %3, ptr %9, align 4
  %11 = load ptr, ptr %6, align 8
  %12 = load ptr, ptr %8, align 8
  %13 = call ptr @pdf_getdict(ptr noundef %11, ptr noundef %7, ptr noundef %12)
  store ptr %13, ptr %10, align 8
  %14 = load ptr, ptr %10, align 8
  %15 = icmp ne ptr %14, null
  br i1 %15, label %16, label %19

16:                                               ; preds = %4
  %17 = load i32, ptr %7, align 4
  %18 = icmp slt i32 %17, 5
  br i1 %18, label %19, label %21

19:                                               ; preds = %16, %4
  %20 = load i32, ptr %9, align 4
  store i32 %20, ptr %5, align 4
  br label %34

21:                                               ; preds = %16
  %22 = load ptr, ptr %10, align 8
  %23 = call i32 @strncmp(ptr noundef %22, ptr noundef @.str.147, i64 noundef 4) #13
  %24 = icmp ne i32 %23, 0
  br i1 %24, label %26, label %25

25:                                               ; preds = %21
  store i32 1, ptr %5, align 4
  br label %34

26:                                               ; preds = %21
  %27 = load ptr, ptr %10, align 8
  %28 = call i32 @strncmp(ptr noundef %27, ptr noundef @.str.148, i64 noundef 5) #13
  %29 = icmp ne i32 %28, 0
  br i1 %29, label %31, label %30

30:                                               ; preds = %26
  store i32 0, ptr %5, align 4
  br label %34

31:                                               ; preds = %26
  %32 = load ptr, ptr %8, align 8
  call void (ptr, ...) @cli_dbgmsg(ptr noundef @.str.298, ptr noundef %32)
  %33 = load i32, ptr %9, align 4
  store i32 %33, ptr %5, align 4
  br label %34

34:                                               ; preds = %31, %30, %25, %19
  %35 = load i32, ptr %5, align 4
  ret i32 %35
}