; Function Attrs: nounwind uwtable
define internal fastcc noundef i32 @pdf_readbool(ptr noundef %0, i32 noundef %1) unnamed_addr #0 {
  %3 = alloca i32, align 4
  store i32 %1, ptr %3, align 4
  %4 = call fastcc ptr @pdf_getdict(ptr noundef %0, ptr noundef nonnull %3, ptr noundef nonnull @.str.138)
  %5 = icmp eq ptr %4, null
  %6 = load i32, ptr %3, align 4
  %7 = icmp slt i32 %6, 5
  %or.cond = select i1 %5, i1 true, i1 %7
  br i1 %or.cond, label %13, label %8

8:                                                ; preds = %2
  %9 = tail call i32 @strncmp(ptr noundef nonnull dereferenceable(1) %4, ptr noundef nonnull dereferenceable(5) @.str.147, i64 noundef 4) #26
  %.not = icmp eq i32 %9, 0
  br i1 %.not, label %13, label %10

10:                                               ; preds = %8
  %11 = tail call i32 @strncmp(ptr noundef nonnull dereferenceable(1) %4, ptr noundef nonnull dereferenceable(6) @.str.148, i64 noundef 5) #26
  %.not10 = icmp eq i32 %11, 0
  br i1 %.not10, label %13, label %12

12:                                               ; preds = %10
  tail call void (ptr, ...) @cli_dbgmsg(ptr noundef nonnull @.str.298, ptr noundef nonnull @.str.138) #22
  br label %13

13:                                               ; preds = %10, %8, %2, %12
  %.0 = phi i32 [ 1, %12 ], [ 1, %2 ], [ 1, %8 ], [ 0, %10 ]
  ret i32 %.0
}